target datalayout = "e-m:e-p270:32:32-p271:32:32-p272:64:64-i64:64-i128:128-f80:128-n8:16:32:64-S128"
target triple = "x86_64-pc-linux-gnu"

%struct.expert_field = type { i32, i32 }
%struct._packet_info = type { ptr, ptr, i32, i32, %struct.nstime_t, %struct.nstime_t, %struct.nstime_t, i8, ptr, ptr, ptr, ptr, %struct._address, %struct._address, %struct._address, %struct._address, %struct._address, %struct._address, i32, ptr, i8, [3 x i8], %struct.anon, i32, i32, i32, i32, ptr, i8, ptr, ptr, i16, i16, i32, i32, i16, i32, i32, ptr, ptr, ptr, i8, i8, i16, i16, i16, i32, i16, i16, ptr, ptr, ptr, ptr, ptr, i32, i32 }
%struct.nstime_t = type { i64, i32 }
%struct._address = type { i32, i32, ptr, ptr }
%struct.anon = type { i8, [3 x i8] }

@ei_mmse_oversized_uintvar = internal global %struct.expert_field zeroinitializer, align 4
@.str.229 = private unnamed_addr constant [1 x i8] zeroinitializer, align 1

; Function Attrs: null_pointer_is_valid sspstrong uwtable
define internal i32 @get_text_string(ptr noundef %0, i32 noundef %1, ptr noundef %2, ptr noundef %3) #0 {
  %5 = alloca ptr, align 8
  %6 = alloca i32, align 4
  %7 = alloca ptr, align 8
  %8 = alloca ptr, align 8
  %9 = alloca i32, align 4
  store ptr %0, ptr %5, align 8
  store i32 %1, ptr %6, align 4
  store ptr %2, ptr %7, align 8
  store ptr %3, ptr %8, align 8
  call void @llvm.lifetime.start.p0(i64 4, ptr %9) #5
  %10 = load ptr, ptr %5, align 8
  %11 = load i32, ptr %6, align 4
  %12 = call zeroext i8 @tvb_get_uint8(ptr noundef %10, i32 noundef %11)
  %13 = zext i8 %12 to i32
  %14 = icmp eq i32 %13, 127
  br i1 %14, label %15, label %24

15:                                               ; preds = %4
  %16 = load ptr, ptr %7, align 8
  %17 = load ptr, ptr %5, align 8
  %18 = load i32, ptr %6, align 4
  %19 = add i32 %18, 1
  %20 = call ptr @tvb_get_stringz_enc(ptr noundef %16, ptr noundef %17, i32 noundef %19, ptr noundef %9, i32 noundef 0)
  %21 = load ptr, ptr %8, align 8
  store ptr %20, ptr %21, align 8
  %22 = load i32, ptr %9, align 4
  %23 = add i32 %22, 1
  store i32 %23, ptr %9, align 4
  br label %30

24:                                               ; preds = %4
  %25 = load ptr, ptr %7, align 8
  %26 = load ptr, ptr %5, align 8
  %27 = load i32, ptr %6, align 4
  %28 = call ptr @tvb_get_stringz_enc(ptr noundef %25, ptr noundef %26, i32 noundef %27, ptr noundef %9, i32 noundef 0)
  %29 = load ptr, ptr %8, align 8
  store ptr %28, ptr %29, align 8
  br label %30

30:                                               ; preds = %24, %15
  %31 = load i32, ptr %9, align 4
  call void @llvm.lifetime.end.p0(i64 4, ptr %9) #5
  ret i32 %31
}

; Function Attrs: null_pointer_is_valid sspstrong uwtable
define internal i32 @get_integer_value(ptr noundef %0, i32 noundef %1, ptr noundef %2) #0 {
  %4 = alloca i32, align 4
  %5 = alloca ptr, align 8
  %6 = alloca i32, align 4
  %7 = alloca ptr, align 8
  %8 = alloca i32, align 4
  %9 = alloca i8, align 1
  %10 = alloca i32, align 4
  store ptr %0, ptr %5, align 8
  store i32 %1, ptr %6, align 4
  store ptr %2, ptr %7, align 8
  call void @llvm.lifetime.start.p0(i64 4, ptr %8) #5
  call void @llvm.lifetime.start.p0(i64 1, ptr %9) #5
  %11 = load ptr, ptr %5, align 8
  %12 = load i32, ptr %6, align 4
  %13 = add i32 %12, 1
  store i32 %13, ptr %6, align 4
  %14 = call zeroext i8 @tvb_get_uint8(ptr noundef %11, i32 noundef %12)
  store i8 %14, ptr %9, align 1
  %15 = load i8, ptr %9, align 1
  %16 = zext i8 %15 to i32
  %17 = and i32 %16, 128
  %18 = icmp ne i32 %17, 0
  br i1 %18, label %19, label %25

19:                                               ; preds = %3
  %20 = load i8, ptr %9, align 1
  %21 = zext i8 %20 to i32
  %22 = and i32 %21, 127
  store i32 %22, ptr %8, align 4
  %23 = load ptr, ptr %7, align 8
  store i32 1, ptr %23, align 4
  %24 = load i32, ptr %8, align 4
  store i32 %24, ptr %4, align 4
  store i32 1, ptr %10, align 4
  br label %56

25:                                               ; preds = %3
  %26 = load i8, ptr %9, align 1
  %27 = zext i8 %26 to i32
  %28 = load ptr, ptr %7, align 8
  store i32 %27, ptr %28, align 4
  %29 = load i8, ptr %9, align 1
  %30 = zext i8 %29 to i32
  switch i32 %30, label %49 [
    i32 1, label %31
    i32 2, label %36
    i32 3, label %41
    i32 4, label %45
  ]

31:                                               ; preds = %25
  %32 = load ptr, ptr %5, align 8
  %33 = load i32, ptr %6, align 4
  %34 = call zeroext i8 @tvb_get_uint8(ptr noundef %32, i32 noundef %33)
  %35 = zext i8 %34 to i32
  store i32 %35, ptr %8, align 4
  br label %50

36:                                               ; preds = %25
  %37 = load ptr, ptr %5, align 8
  %38 = load i32, ptr %6, align 4
  %39 = call zeroext i16 @tvb_get_ntohs(ptr noundef %37, i32 noundef %38)
  %40 = zext i16 %39 to i32
  store i32 %40, ptr %8, align 4
  br label %50

41:                                               ; preds = %25
  %42 = load ptr, ptr %5, align 8
  %43 = load i32, ptr %6, align 4
  %44 = call i32 @tvb_get_ntoh24(ptr noundef %42, i32 noundef %43)
  store i32 %44, ptr %8, align 4
  br label %50

45:                                               ; preds = %25
  %46 = load ptr, ptr %5, align 8
  %47 = load i32, ptr %6, align 4
  %48 = call i32 @tvb_get_ntohl(ptr noundef %46, i32 noundef %47)
  store i32 %48, ptr %8, align 4
  br label %50

49:                                               ; preds = %25
  store i32 0, ptr %8, align 4
  br label %50

50:                                               ; preds = %49, %45, %41, %36, %31
  br label %51

51:                                               ; preds = %50
  %52 = load ptr, ptr %7, align 8
  %53 = load i32, ptr %52, align 4
  %54 = add i32 %53, 1
  store i32 %54, ptr %52, align 4
  %55 = load i32, ptr %8, align 4
  store i32 %55, ptr %4, align 4
  store i32 1, ptr %10, align 4
  br label %56

56:                                               ; preds = %51, %19
  call void @llvm.lifetime.end.p0(i64 1, ptr %9) #5
  call void @llvm.lifetime.end.p0(i64 4, ptr %8) #5
  %57 = load i32, ptr %4, align 4
  ret i32 %57
}

; Function Attrs: null_pointer_is_valid sspstrong uwtable
define internal i32 @get_value_length(ptr noundef %0, i32 noundef %1, ptr noundef %2, ptr noundef %3) #0 {
  %5 = alloca ptr, align 8
  %6 = alloca i32, align 4
  %7 = alloca ptr, align 8
  %8 = alloca ptr, align 8
  %9 = alloca i32, align 4
  store ptr %0, ptr %5, align 8
  store i32 %1, ptr %6, align 4
  store ptr %2, ptr %7, align 8
  store ptr %3, ptr %8, align 8
  call void @llvm.lifetime.start.p0(i64 4, ptr %9) #5
  %10 = load ptr, ptr %5, align 8
  %11 = load i32, ptr %6, align 4
  %12 = add i32 %11, 1
  store i32 %12, ptr %6, align 4
  %13 = call zeroext i8 @tvb_get_uint8(ptr noundef %10, i32 noundef %11)
  %14 = zext i8 %13 to i32
  store i32 %14, ptr %9, align 4
  %15 = load i32, ptr %9, align 4
  %16 = icmp ult i32 %15, 31
  br i1 %16, label %17, label %19

17:                                               ; preds = %4
  %18 = load ptr, ptr %7, align 8
  store i32 1, ptr %18, align 4
  br label %28

19:                                               ; preds = %4
  %20 = load ptr, ptr %5, align 8
  %21 = load i32, ptr %6, align 4
  %22 = load ptr, ptr %7, align 8
  %23 = load ptr, ptr %8, align 8
  %24 = call i32 @tvb_get_uintvar(ptr noundef %20, i32 noundef %21, ptr noundef %22, ptr noundef %23, ptr noundef @ei_mmse_oversized_uintvar)
  store i32 %24, ptr %9, align 4
  %25 = load ptr, ptr %7, align 8
  %26 = load i32, ptr %25, align 4
  %27 = add i32 %26, 1
  store i32 %27, ptr %25, align 4
  br label %28

28:                                               ; preds = %19, %17
  %29 = load ptr, ptr %5, align 8
  %30 = load i32, ptr %6, align 4
  %31 = load i32, ptr %9, align 4
  call void @tvb_ensure_bytes_exist(ptr noundef %29, i32 noundef %30, i32 noundef %31)
  %32 = load i32, ptr %9, align 4
  call void @llvm.lifetime.end.p0(i64 4, ptr %9) #5
  ret i32 %32
}

; Function Attrs: null_pointer_is_valid sspstrong uwtable
define internal i32 @get_encoded_strval(ptr noundef %0, i32 noundef %1, ptr noundef %2, ptr noundef %3) #0 {
  %5 = alloca i32, align 4
  %6 = alloca ptr, align 8
  %7 = alloca i32, align 4
  %8 = alloca ptr, align 8
  %9 = alloca ptr, align 8
  %10 = alloca i32, align 4
  %11 = alloca i32, align 4
  %12 = alloca i32, align 4
  %13 = alloca i32, align 4
  %14 = alloca i32, align 4
  %15 = alloca i32, align 4
  store ptr %0, ptr %6, align 8
  store i32 %1, ptr %7, align 4
  store ptr %2, ptr %8, align 8
  store ptr %3, ptr %9, align 8
  call void @llvm.lifetime.start.p0(i64 4, ptr %10) #5
  call void @llvm.lifetime.start.p0(i64 4, ptr %11) #5
  call void @llvm.lifetime.start.p0(i64 4, ptr %12) #5
  call void @llvm.lifetime.start.p0(i64 4, ptr %13) #5
  call void @llvm.lifetime.start.p0(i64 4, ptr %14) #5
  %16 = load ptr, ptr %6, align 8
  %17 = load i32, ptr %7, align 4
  %18 = call zeroext i8 @tvb_get_uint8(ptr noundef %16, i32 noundef %17)
  %19 = zext i8 %18 to i32
  store i32 %19, ptr %10, align 4
  %20 = load i32, ptr %10, align 4
  %21 = icmp ult i32 %20, 32
  br i1 %21, label %22, label %83

22:                                               ; preds = %4
  %23 = load ptr, ptr %6, align 8
  %24 = load i32, ptr %7, align 4
  %25 = load ptr, ptr %9, align 8
  %26 = call i32 @get_value_length(ptr noundef %23, i32 noundef %24, ptr noundef %12, ptr noundef %25)
  store i32 %26, ptr %11, align 4
  %27 = load i32, ptr %11, align 4
  %28 = icmp ult i32 %27, 2
  br i1 %28, label %29, label %31

29:                                               ; preds = %22
  %30 = load ptr, ptr %8, align 8
  store ptr @.str.229, ptr %30, align 8
  br label %79

31:                                               ; preds = %22
  %32 = load ptr, ptr %6, align 8
  %33 = load i32, ptr %7, align 4
  %34 = load i32, ptr %12, align 4
  %35 = add i32 %33, %34
  %36 = call zeroext i8 @tvb_get_uint8(ptr noundef %32, i32 noundef %35)
  %37 = zext i8 %36 to i32
  store i32 %37, ptr %10, align 4
  %38 = load i32, ptr %10, align 4
  %39 = icmp ult i32 %38, 32
  %40 = zext i1 %39 to i32
  %41 = load i32, ptr %10, align 4
  %42 = and i32 %41, 128
  %43 = or i32 %40, %42
  %44 = icmp ne i32 %43, 0
  br i1 %44, label %45, label %67

45:                                               ; preds = %31
  %46 = load ptr, ptr %6, align 8
  %47 = load i32, ptr %7, align 4
  %48 = load i32, ptr %12, align 4
  %49 = add i32 %47, %48
  %50 = call i32 @get_integer_value(ptr noundef %46, i32 noundef %49, ptr noundef %13)
  store i32 %50, ptr %14, align 4
  %51 = load ptr, ptr %9, align 8
  %52 = getelementptr inbounds nuw %struct._packet_info, ptr %51, i32 0, i32 51
  %53 = load ptr, ptr %52, align 8
  %54 = load ptr, ptr %6, align 8
  %55 = load i32, ptr %7, align 4
  %56 = load i32, ptr %12, align 4
  %57 = add i32 %55, %56
  %58 = load i32, ptr %13, align 4
  %59 = add i32 %57, %58
  %60 = load i32, ptr %11, align 4
  %61 = load i32, ptr %13, align 4
  %62 = sub i32 %60, %61
  %63 = load i32, ptr %14, align 4
  %64 = call i32 @mibenum_charset_to_encoding(i32 noundef %63)
  %65 = call ptr @tvb_get_string_enc(ptr noundef %53, ptr noundef %54, i32 noundef %59, i32 noundef %62, i32 noundef %64)
  %66 = load ptr, ptr %8, align 8
  store ptr %65, ptr %66, align 8
  br label %78

67:                                               ; preds = %31
  %68 = load ptr, ptr %9, align 8
  %69 = getelementptr inbounds nuw %struct._packet_info, ptr %68, i32 0, i32 51
  %70 = load ptr, ptr %69, align 8
  %71 = load ptr, ptr %6, align 8
  %72 = load i32, ptr %7, align 4
  %73 = load i32, ptr %12, align 4
  %74 = add i32 %72, %73
  %75 = load i32, ptr %11, align 4
  %76 = call ptr @tvb_get_string_enc(ptr noundef %70, ptr noundef %71, i32 noundef %74, i32 noundef %75, i32 noundef 0)
  %77 = load ptr, ptr %8, align 8
  store ptr %76, ptr %77, align 8
  br label %78

78:                                               ; preds = %67, %45
  br label %79

79:                                               ; preds = %78, %29
  %80 = load i32, ptr %12, align 4
  %81 = load i32, ptr %11, align 4
  %82 = add i32 %80, %81
  store i32 %82, ptr %5, align 4
  store i32 1, ptr %15, align 4
  br label %91

83:                                               ; preds = %4
  %84 = load ptr, ptr %6, align 8
  %85 = load i32, ptr %7, align 4
  %86 = load ptr, ptr %9, align 8
  %87 = getelementptr inbounds nuw %struct._packet_info, ptr %86, i32 0, i32 51
  %88 = load ptr, ptr %87, align 8
  %89 = load ptr, ptr %8, align 8
  %90 = call i32 @get_text_string(ptr noundef %84, i32 noundef %85, ptr noundef %88, ptr noundef %89)
  store i32 %90, ptr %5, align 4
  store i32 1, ptr %15, align 4
  br label %91

91:                                               ; preds = %83, %79
  call void @llvm.lifetime.end.p0(i64 4, ptr %14) #5
  call void @llvm.lifetime.end.p0(i64 4, ptr %13) #5
  call void @llvm.lifetime.end.p0(i64 4, ptr %12) #5
  call void @llvm.lifetime.end.p0(i64 4, ptr %11) #5
  call void @llvm.lifetime.end.p0(i64 4, ptr %10) #5
  %92 = load i32, ptr %5, align 4
  ret i32 %92
}