; Function Attrs: null_pointer_is_valid sspstrong uwtable
define internal fastcc i32 @get_encoded_strval(ptr noundef %0, i32 noundef %1, ptr noundef writeonly captures(none) initializes((0, 8)) %2, ptr noundef %3) unnamed_addr #0 {
  %5 = alloca i32, align 4
  %6 = alloca i32, align 4
  call void @llvm.lifetime.start.p0(i64 4, ptr nonnull %6) #5
  %7 = tail call zeroext i8 @tvb_get_uint8(ptr noundef %0, i32 noundef %1)
  %8 = icmp ult i8 %7, 32
  br i1 %8, label %9, label %65

9:                                                ; preds = %4
  %10 = add i32 %1, 1
  %11 = tail call zeroext i8 @tvb_get_uint8(ptr noundef %0, i32 noundef %1)
  %12 = icmp ult i8 %11, 31
  br i1 %12, label %13, label %15

13:                                               ; preds = %9
  %14 = zext nneg i8 %11 to i32
  br label %get_value_length.exit

15:                                               ; preds = %9
  %16 = call i32 @tvb_get_uintvar(ptr noundef %0, i32 noundef %10, ptr noundef nonnull %6, ptr noundef %3, ptr noundef nonnull @ei_mmse_oversized_uintvar)
  %17 = load i32, ptr %6, align 4
  %18 = add i32 %17, 1
  br label %get_value_length.exit

get_value_length.exit:                            ; preds = %13, %15
  %storemerge.i = phi i32 [ %18, %15 ], [ 1, %13 ]
  %.0.i = phi i32 [ %16, %15 ], [ %14, %13 ]
  store i32 %storemerge.i, ptr %6, align 4
  call void @tvb_ensure_bytes_exist(ptr noundef %0, i32 noundef %10, i32 noundef %.0.i)
  %19 = icmp ult i32 %.0.i, 2
  br i1 %19, label %62, label %20

20:                                               ; preds = %get_value_length.exit
  %21 = load i32, ptr %6, align 4
  %22 = add i32 %21, %1
  %23 = call zeroext i8 @tvb_get_uint8(ptr noundef %0, i32 noundef %22)
  %24 = icmp ult i8 %23, 32
  %25 = and i8 %23, -128
  %26 = zext i1 %24 to i8
  %27 = or disjoint i8 %25, %26
  %.not = icmp eq i8 %27, 0
  br i1 %.not, label %56, label %28

28:                                               ; preds = %20
  %29 = load i32, ptr %6, align 4
  %30 = add i32 %29, %1
  %31 = add i32 %30, 1
  %32 = call zeroext i8 @tvb_get_uint8(ptr noundef %0, i32 noundef %30)
  %33 = zext i8 %32 to i32
  %.not.i = icmp sgt i8 %32, -1
  br i1 %.not.i, label %36, label %34

34:                                               ; preds = %28
  %35 = and i32 %33, 127
  br label %get_integer_value.exit

36:                                               ; preds = %28
  switch i8 %32, label %47 [
    i8 1, label %37
    i8 2, label %40
    i8 3, label %43
    i8 4, label %45
  ]

37:                                               ; preds = %36
  %38 = call zeroext i8 @tvb_get_uint8(ptr noundef %0, i32 noundef %31)
  %39 = zext i8 %38 to i32
  br label %47

40:                                               ; preds = %36
  %41 = call zeroext i16 @tvb_get_ntohs(ptr noundef %0, i32 noundef %31)
  %42 = zext i16 %41 to i32
  br label %47

43:                                               ; preds = %36
  %44 = call i32 @tvb_get_ntoh24(ptr noundef %0, i32 noundef %31)
  br label %47

45:                                               ; preds = %36
  %46 = call i32 @tvb_get_ntohl(ptr noundef %0, i32 noundef %31)
  br label %47

47:                                               ; preds = %45, %43, %40, %37, %36
  %.019.i = phi i32 [ %46, %45 ], [ %44, %43 ], [ %42, %40 ], [ %39, %37 ], [ 0, %36 ]
  %48 = add nuw nsw i32 %33, 1
  %.pre = add i32 %48, %1
  br label %get_integer_value.exit

get_integer_value.exit:                           ; preds = %34, %47
  %.pre-phi = phi i32 [ %10, %34 ], [ %.pre, %47 ]
  %storemerge.i31 = phi i32 [ 1, %34 ], [ %48, %47 ]
  %.0.i32 = phi i32 [ %35, %34 ], [ %.019.i, %47 ]
  %49 = getelementptr inbounds nuw i8, ptr %3, i64 408
  %50 = load ptr, ptr %49, align 8
  %51 = load i32, ptr %6, align 4
  %52 = add i32 %.pre-phi, %51
  %53 = sub i32 %.0.i, %storemerge.i31
  %54 = call i32 @mibenum_charset_to_encoding(i32 noundef %.0.i32)
  %55 = call ptr @tvb_get_string_enc(ptr noundef %50, ptr noundef %0, i32 noundef %52, i32 noundef %53, i32 noundef %54)
  br label %62

56:                                               ; preds = %20
  %57 = getelementptr inbounds nuw i8, ptr %3, i64 408
  %58 = load ptr, ptr %57, align 8
  %59 = load i32, ptr %6, align 4
  %60 = add i32 %59, %1
  %61 = call ptr @tvb_get_string_enc(ptr noundef %58, ptr noundef %0, i32 noundef %60, i32 noundef %.0.i, i32 noundef 0)
  br label %62

62:                                               ; preds = %get_value_length.exit, %get_integer_value.exit, %56
  %.sink = phi ptr [ %55, %get_integer_value.exit ], [ %61, %56 ], [ @.str.229, %get_value_length.exit ]
  store ptr %.sink, ptr %2, align 8
  %63 = load i32, ptr %6, align 4
  %64 = add i32 %63, %.0.i
  br label %78

65:                                               ; preds = %4
  %66 = getelementptr inbounds nuw i8, ptr %3, i64 408
  %67 = load ptr, ptr %66, align 8
  call void @llvm.lifetime.start.p0(i64 4, ptr nonnull %5) #5
  %68 = tail call zeroext i8 @tvb_get_uint8(ptr noundef %0, i32 noundef %1)
  %69 = icmp eq i8 %68, 127
  br i1 %69, label %70, label %75

70:                                               ; preds = %65
  %71 = add i32 %1, 1
  %72 = call ptr @tvb_get_stringz_enc(ptr noundef %67, ptr noundef %0, i32 noundef %71, ptr noundef nonnull %5, i32 noundef 0)
  %73 = load i32, ptr %5, align 4
  %74 = add i32 %73, 1
  br label %get_text_string.exit

75:                                               ; preds = %65
  %76 = call ptr @tvb_get_stringz_enc(ptr noundef %67, ptr noundef %0, i32 noundef %1, ptr noundef nonnull %5, i32 noundef 0)
  %.pre.i = load i32, ptr %5, align 4
  br label %get_text_string.exit

get_text_string.exit:                             ; preds = %70, %75
  %77 = phi i32 [ %74, %70 ], [ %.pre.i, %75 ]
  %.sink.i = phi ptr [ %72, %70 ], [ %76, %75 ]
  store ptr %.sink.i, ptr %2, align 8
  call void @llvm.lifetime.end.p0(i64 4, ptr nonnull %5) #5
  br label %78

78:                                               ; preds = %get_text_string.exit, %62
  %.0 = phi i32 [ %64, %62 ], [ %77, %get_text_string.exit ]
  call void @llvm.lifetime.end.p0(i64 4, ptr nonnull %6) #5
  ret i32 %.0
}